target datalayout = "e-m:e-p270:32:32-p271:32:32-p272:64:64-i64:64-i128:128-f80:128-n8:16:32:64-S128"
target triple = "x86_64-pc-linux-gnu"

%struct.stats_t = type { double, double, double, i32, i32, i32 }
%struct.info_t = type { ptr, i16, ptr, i32, i32, i32, i32, i32, i32, i32, %struct.side_t, %struct.side_t, i32, %struct.memBuf_t, %struct.memBuf_t, i32, %struct.stats_t, %struct.stats_t }
%struct.side_t = type { i32, i32, i32 }
%struct.memBuf_t = type { [16486 x i8], i32, i32, i32, i32, %struct.COND_TYPE, i32 }
%struct.COND_TYPE = type { %union.pthread_mutex_t, %union.pthread_cond_t }
%union.pthread_mutex_t = type { %struct.__pthread_mutex_s }
%struct.__pthread_mutex_s = type { i32, i32, i32, i32, i32, i16, i16, %struct.__pthread_internal_list }
%struct.__pthread_internal_list = type { ptr, ptr }
%union.pthread_cond_t = type { %struct.__pthread_cond_s }
%struct.__pthread_cond_s = type { %union.__atomic_wide_counter, %union.__atomic_wide_counter, [2 x i32], [2 x i32], i32, i32, [2 x i32] }
%union.__atomic_wide_counter = type { i64 }

@stderr = external global ptr, align 8
@.str.7 = private unnamed_addr constant [26 x i8] c"%s L%d error %d for \22%s\22\0A\00", align 1
@.str.8 = private unnamed_addr constant [124 x i8] c"generated/home/dtcxzyw/WorkSpace/Projects/compilers/llvm-opt-benchmark/bench/wolfssl/wolfssl/examples/benchmark/tls_bench.c\00", align 1
@.str.10 = private unnamed_addr constant [19 x i8] c"thread call failed\00", align 1
@.str.100 = private unnamed_addr constant [41 x i8] c"wolfSSL_CondStart(&info->to_client.cond)\00", align 1
@.str.101 = private unnamed_addr constant [40 x i8] c"wolfSSL_CondWait(&info->to_client.cond)\00", align 1
@.str.102 = private unnamed_addr constant [39 x i8] c"wolfSSL_CondEnd(&info->to_client.cond)\00", align 1

; Function Attrs: nounwind uwtable
define internal i32 @SocketRecv(i32 noundef %0, ptr noundef %1, i32 noundef %2) #0 {
  %4 = alloca i32, align 4
  %5 = alloca i32, align 4
  %6 = alloca ptr, align 8
  %7 = alloca i32, align 4
  %8 = alloca i32, align 4
  %9 = alloca i32, align 4
  store i32 %0, ptr %5, align 4, !tbaa !8
  store ptr %1, ptr %6, align 8, !tbaa !10
  store i32 %2, ptr %7, align 4, !tbaa !8
  call void @llvm.lifetime.start.p0(i64 4, ptr %8) #12
  %10 = load i32, ptr %5, align 4, !tbaa !8
  %11 = load ptr, ptr %6, align 8, !tbaa !10
  %12 = load i32, ptr %7, align 4, !tbaa !8
  %13 = sext i32 %12 to i64
  %14 = call i64 @recv(i32 noundef %10, ptr noundef %11, i64 noundef %13, i32 noundef 0)
  %15 = trunc i64 %14 to i32
  store i32 %15, ptr %8, align 4, !tbaa !8
  %16 = load i32, ptr %8, align 4, !tbaa !8
  %17 = icmp eq i32 %16, -1
  br i1 %17, label %18, label %27

18:                                               ; preds = %3
  %19 = call ptr @__errno_location() #14
  %20 = load i32, ptr %19, align 4, !tbaa !8
  switch i32 %20, label %26 [
    i32 11, label %21
    i32 104, label %22
    i32 4, label %23
    i32 111, label %24
    i32 103, label %25
  ]

21:                                               ; preds = %18
  store i32 -2, ptr %4, align 4
  store i32 1, ptr %9, align 4
  br label %34

22:                                               ; preds = %18
  store i32 -3, ptr %4, align 4
  store i32 1, ptr %9, align 4
  br label %34

23:                                               ; preds = %18
  store i32 -4, ptr %4, align 4
  store i32 1, ptr %9, align 4
  br label %34

24:                                               ; preds = %18
  store i32 -2, ptr %4, align 4
  store i32 1, ptr %9, align 4
  br label %34

25:                                               ; preds = %18
  store i32 -5, ptr %4, align 4
  store i32 1, ptr %9, align 4
  br label %34

26:                                               ; preds = %18
  store i32 -1, ptr %4, align 4
  store i32 1, ptr %9, align 4
  br label %34

27:                                               ; preds = %3
  %28 = load i32, ptr %8, align 4, !tbaa !8
  %29 = icmp eq i32 %28, 0
  br i1 %29, label %30, label %31

30:                                               ; preds = %27
  store i32 -5, ptr %4, align 4
  store i32 1, ptr %9, align 4
  br label %34

31:                                               ; preds = %27
  br label %32

32:                                               ; preds = %31
  %33 = load i32, ptr %8, align 4, !tbaa !8
  store i32 %33, ptr %4, align 4
  store i32 1, ptr %9, align 4
  br label %34

34:                                               ; preds = %32, %30, %26, %25, %24, %23, %22, %21
  call void @llvm.lifetime.end.p0(i64 4, ptr %8) #12
  %35 = load i32, ptr %4, align 4
  ret i32 %35
}

; Function Attrs: nounwind uwtable
define internal i32 @ClientMemRecv(ptr noundef %0, ptr noundef %1, i32 noundef %2) #0 {
  %4 = alloca i32, align 4
  %5 = alloca ptr, align 8
  %6 = alloca ptr, align 8
  %7 = alloca i32, align 4
  %8 = alloca i32, align 4
  %9 = alloca i32, align 4
  %10 = alloca i32, align 4
  store ptr %0, ptr %5, align 8, !tbaa !4
  store ptr %1, ptr %6, align 8, !tbaa !10
  store i32 %2, ptr %7, align 4, !tbaa !8
  br label %11

11:                                               ; preds = %3
  call void @llvm.lifetime.start.p0(i64 4, ptr %8) #12
  %12 = load ptr, ptr %5, align 8, !tbaa !4
  %13 = getelementptr inbounds nuw %struct.info_t, ptr %12, i32 0, i32 14
  %14 = getelementptr inbounds nuw %struct.memBuf_t, ptr %13, i32 0, i32 5
  %15 = call i32 @wolfSSL_CondStart(ptr noundef %14)
  store i32 %15, ptr %8, align 4, !tbaa !8
  %16 = load i32, ptr %8, align 4, !tbaa !8
  %17 = icmp ne i32 %16, 0
  br i1 %17, label %18, label %24

18:                                               ; preds = %11
  %19 = load i32, ptr %8, align 4, !tbaa !8
  %20 = call ptr @__errno_location() #14
  store i32 %19, ptr %20, align 4, !tbaa !8
  %21 = load ptr, ptr @stderr, align 8, !tbaa !20
  %22 = load i32, ptr %8, align 4, !tbaa !8
  %23 = call i32 (ptr, ptr, ...) @fprintf(ptr noundef %21, ptr noundef @.str.7, ptr noundef @.str.8, i32 noundef 547, i32 noundef %22, ptr noundef @.str.100) #12
  call void @err_sys(ptr noundef @.str.10) #15
  unreachable

24:                                               ; preds = %11
  call void @llvm.lifetime.end.p0(i64 4, ptr %8) #12
  br label %25

25:                                               ; preds = %24
  br label %26

26:                                               ; preds = %62, %25
  %27 = load ptr, ptr %5, align 8, !tbaa !4
  %28 = getelementptr inbounds nuw %struct.info_t, ptr %27, i32 0, i32 14
  %29 = getelementptr inbounds nuw %struct.memBuf_t, ptr %28, i32 0, i32 2
  %30 = load i32, ptr %29, align 4, !tbaa !110
  %31 = load ptr, ptr %5, align 8, !tbaa !4
  %32 = getelementptr inbounds nuw %struct.info_t, ptr %31, i32 0, i32 14
  %33 = getelementptr inbounds nuw %struct.memBuf_t, ptr %32, i32 0, i32 4
  %34 = load i32, ptr %33, align 4, !tbaa !111
  %35 = sub nsw i32 %30, %34
  %36 = load i32, ptr %7, align 4, !tbaa !8
  %37 = icmp slt i32 %35, %36
  br i1 %37, label %38, label %45

38:                                               ; preds = %26
  %39 = load ptr, ptr %5, align 8, !tbaa !4
  %40 = getelementptr inbounds nuw %struct.info_t, ptr %39, i32 0, i32 13
  %41 = getelementptr inbounds nuw %struct.memBuf_t, ptr %40, i32 0, i32 6
  %42 = load i32, ptr %41, align 8, !tbaa !51
  %43 = icmp ne i32 %42, 0
  %44 = xor i1 %43, true
  br label %45

45:                                               ; preds = %38, %26
  %46 = phi i1 [ false, %26 ], [ %44, %38 ]
  br i1 %46, label %47, label %63

47:                                               ; preds = %45
  br label %48

48:                                               ; preds = %47
  call void @llvm.lifetime.start.p0(i64 4, ptr %9) #12
  %49 = load ptr, ptr %5, align 8, !tbaa !4
  %50 = getelementptr inbounds nuw %struct.info_t, ptr %49, i32 0, i32 14
  %51 = getelementptr inbounds nuw %struct.memBuf_t, ptr %50, i32 0, i32 5
  %52 = call i32 @wolfSSL_CondWait(ptr noundef %51)
  store i32 %52, ptr %9, align 4, !tbaa !8
  %53 = load i32, ptr %9, align 4, !tbaa !8
  %54 = icmp ne i32 %53, 0
  br i1 %54, label %55, label %61

55:                                               ; preds = %48
  %56 = load i32, ptr %9, align 4, !tbaa !8
  %57 = call ptr @__errno_location() #14
  store i32 %56, ptr %57, align 4, !tbaa !8
  %58 = load ptr, ptr @stderr, align 8, !tbaa !20
  %59 = load i32, ptr %9, align 4, !tbaa !8
  %60 = call i32 (ptr, ptr, ...) @fprintf(ptr noundef %58, ptr noundef @.str.7, ptr noundef @.str.8, i32 noundef 552, i32 noundef %59, ptr noundef @.str.101) #12
  call void @err_sys(ptr noundef @.str.10) #15
  unreachable

61:                                               ; preds = %48
  call void @llvm.lifetime.end.p0(i64 4, ptr %9) #12
  br label %62

62:                                               ; preds = %61
  br label %26, !llvm.loop !112

63:                                               ; preds = %45
  %64 = load ptr, ptr %6, align 8, !tbaa !10
  %65 = load ptr, ptr %5, align 8, !tbaa !4
  %66 = getelementptr inbounds nuw %struct.info_t, ptr %65, i32 0, i32 14
  %67 = getelementptr inbounds nuw %struct.memBuf_t, ptr %66, i32 0, i32 0
  %68 = load ptr, ptr %5, align 8, !tbaa !4
  %69 = getelementptr inbounds nuw %struct.info_t, ptr %68, i32 0, i32 14
  %70 = getelementptr inbounds nuw %struct.memBuf_t, ptr %69, i32 0, i32 4
  %71 = load i32, ptr %70, align 4, !tbaa !111
  %72 = sext i32 %71 to i64
  %73 = getelementptr inbounds [16486 x i8], ptr %67, i64 0, i64 %72
  %74 = load i32, ptr %7, align 4, !tbaa !8
  %75 = sext i32 %74 to i64
  call void @llvm.memcpy.p0.p0.i64(ptr align 1 %64, ptr align 1 %73, i64 %75, i1 false)
  %76 = load i32, ptr %7, align 4, !tbaa !8
  %77 = load ptr, ptr %5, align 8, !tbaa !4
  %78 = getelementptr inbounds nuw %struct.info_t, ptr %77, i32 0, i32 14
  %79 = getelementptr inbounds nuw %struct.memBuf_t, ptr %78, i32 0, i32 4
  %80 = load i32, ptr %79, align 4, !tbaa !111
  %81 = add nsw i32 %80, %76
  store i32 %81, ptr %79, align 4, !tbaa !111
  %82 = load i32, ptr %7, align 4, !tbaa !8
  %83 = load ptr, ptr %5, align 8, !tbaa !4
  %84 = getelementptr inbounds nuw %struct.info_t, ptr %83, i32 0, i32 14
  %85 = getelementptr inbounds nuw %struct.memBuf_t, ptr %84, i32 0, i32 3
  %86 = load i32, ptr %85, align 8, !tbaa !113
  %87 = add nsw i32 %86, %82
  store i32 %87, ptr %85, align 8, !tbaa !113
  %88 = load ptr, ptr %5, align 8, !tbaa !4
  %89 = getelementptr inbounds nuw %struct.info_t, ptr %88, i32 0, i32 14
  %90 = getelementptr inbounds nuw %struct.memBuf_t, ptr %89, i32 0, i32 3
  %91 = load i32, ptr %90, align 8, !tbaa !113
  %92 = load ptr, ptr %5, align 8, !tbaa !4
  %93 = getelementptr inbounds nuw %struct.info_t, ptr %92, i32 0, i32 14
  %94 = getelementptr inbounds nuw %struct.memBuf_t, ptr %93, i32 0, i32 1
  %95 = load i32, ptr %94, align 8, !tbaa !114
  %96 = icmp eq i32 %91, %95
  br i1 %96, label %97, label %110

97:                                               ; preds = %63
  %98 = load ptr, ptr %5, align 8, !tbaa !4
  %99 = getelementptr inbounds nuw %struct.info_t, ptr %98, i32 0, i32 14
  %100 = getelementptr inbounds nuw %struct.memBuf_t, ptr %99, i32 0, i32 4
  store i32 0, ptr %100, align 4, !tbaa !111
  %101 = load ptr, ptr %5, align 8, !tbaa !4
  %102 = getelementptr inbounds nuw %struct.info_t, ptr %101, i32 0, i32 14
  %103 = getelementptr inbounds nuw %struct.memBuf_t, ptr %102, i32 0, i32 3
  store i32 0, ptr %103, align 8, !tbaa !113
  %104 = load ptr, ptr %5, align 8, !tbaa !4
  %105 = getelementptr inbounds nuw %struct.info_t, ptr %104, i32 0, i32 14
  %106 = getelementptr inbounds nuw %struct.memBuf_t, ptr %105, i32 0, i32 2
  store i32 0, ptr %106, align 4, !tbaa !110
  %107 = load ptr, ptr %5, align 8, !tbaa !4
  %108 = getelementptr inbounds nuw %struct.info_t, ptr %107, i32 0, i32 14
  %109 = getelementptr inbounds nuw %struct.memBuf_t, ptr %108, i32 0, i32 1
  store i32 0, ptr %109, align 8, !tbaa !114
  br label %110

110:                                              ; preds = %97, %63
  br label %111

111:                                              ; preds = %110
  call void @llvm.lifetime.start.p0(i64 4, ptr %10) #12
  %112 = load ptr, ptr %5, align 8, !tbaa !4
  %113 = getelementptr inbounds nuw %struct.info_t, ptr %112, i32 0, i32 14
  %114 = getelementptr inbounds nuw %struct.memBuf_t, ptr %113, i32 0, i32 5
  %115 = call i32 @wolfSSL_CondEnd(ptr noundef %114)
  store i32 %115, ptr %10, align 4, !tbaa !8
  %116 = load i32, ptr %10, align 4, !tbaa !8
  %117 = icmp ne i32 %116, 0
  br i1 %117, label %118, label %124

118:                                              ; preds = %111
  %119 = load i32, ptr %10, align 4, !tbaa !8
  %120 = call ptr @__errno_location() #14
  store i32 %119, ptr %120, align 4, !tbaa !8
  %121 = load ptr, ptr @stderr, align 8, !tbaa !20
  %122 = load i32, ptr %10, align 4, !tbaa !8
  %123 = call i32 (ptr, ptr, ...) @fprintf(ptr noundef %121, ptr noundef @.str.7, ptr noundef @.str.8, i32 noundef 570, i32 noundef %122, ptr noundef @.str.102) #12
  call void @err_sys(ptr noundef @.str.10) #15
  unreachable

124:                                              ; preds = %111
  call void @llvm.lifetime.end.p0(i64 4, ptr %10) #12
  br label %125

125:                                              ; preds = %124
  %126 = load ptr, ptr %5, align 8, !tbaa !4
  %127 = getelementptr inbounds nuw %struct.info_t, ptr %126, i32 0, i32 13
  %128 = getelementptr inbounds nuw %struct.memBuf_t, ptr %127, i32 0, i32 6
  %129 = load i32, ptr %128, align 8, !tbaa !51
  %130 = icmp ne i32 %129, 0
  br i1 %130, label %131, label %132

131:                                              ; preds = %125
  store i32 -1, ptr %4, align 4
  br label %134

132:                                              ; preds = %125
  %133 = load i32, ptr %7, align 4, !tbaa !8
  store i32 %133, ptr %4, align 4
  br label %134

134:                                              ; preds = %132, %131
  %135 = load i32, ptr %4, align 4
  ret i32 %135
}

; Function Attrs: nounwind uwtable
define internal i32 @ClientRecv(ptr noundef %0, ptr noundef %1, i32 noundef %2, ptr noundef %3) #0 {
  %5 = alloca i32, align 4
  %6 = alloca ptr, align 8
  %7 = alloca ptr, align 8
  %8 = alloca i32, align 4
  %9 = alloca ptr, align 8
  %10 = alloca ptr, align 8
  %11 = alloca i32, align 4
  store ptr %0, ptr %6, align 8, !tbaa !78
  store ptr %1, ptr %7, align 8, !tbaa !10
  store i32 %2, ptr %8, align 4, !tbaa !8
  store ptr %3, ptr %9, align 8, !tbaa !4
  call void @llvm.lifetime.start.p0(i64 8, ptr %10) #12
  %12 = load ptr, ptr %9, align 8, !tbaa !4
  store ptr %12, ptr %10, align 8, !tbaa !4
  %13 = load ptr, ptr %10, align 8, !tbaa !4
  %14 = getelementptr inbounds nuw %struct.info_t, ptr %13, i32 0, i32 12
  %15 = load i32, ptr %14, align 4, !tbaa !48
  %16 = icmp ne i32 %15, 0
  br i1 %16, label %17, label %22

17:                                               ; preds = %4
  %18 = load ptr, ptr %10, align 8, !tbaa !4
  %19 = load ptr, ptr %7, align 8, !tbaa !10
  %20 = load i32, ptr %8, align 4, !tbaa !8
  %21 = call i32 @ClientMemRecv(ptr noundef %18, ptr noundef %19, i32 noundef %20)
  store i32 %21, ptr %5, align 4
  store i32 1, ptr %11, align 4
  br label %30

22:                                               ; preds = %4
  %23 = load ptr, ptr %10, align 8, !tbaa !4
  %24 = getelementptr inbounds nuw %struct.info_t, ptr %23, i32 0, i32 10
  %25 = getelementptr inbounds nuw %struct.side_t, ptr %24, i32 0, i32 1
  %26 = load i32, ptr %25, align 4, !tbaa !45
  %27 = load ptr, ptr %7, align 8, !tbaa !10
  %28 = load i32, ptr %8, align 4, !tbaa !8
  %29 = call i32 @SocketRecv(i32 noundef %26, ptr noundef %27, i32 noundef %28)
  store i32 %29, ptr %5, align 4
  store i32 1, ptr %11, align 4
  br label %30

30:                                               ; preds = %22, %17
  call void @llvm.lifetime.end.p0(i64 8, ptr %10) #12
  %31 = load i32, ptr %5, align 4
  ret i32 %31
}